; Function Attrs: mustprogress uwtable
define noundef double @unum_parseDouble_75(ptr noundef %fmt, ptr noundef %text, i32 noundef %textLength, ptr noundef %parsePos, ptr noundef %status) local_unnamed_addr #0 personality ptr @__gxx_personality_v0 {
entry:
  %res = alloca %"class.icu_75::Formattable", align 8
  call void @_ZN6icu_7511FormattableC1Ev(ptr noundef nonnull align 8 dereferenceable(112) %res)
  invoke fastcc void @_ZL8parseResRN6icu_7511FormattableEPKPvPKDsiPiP10UErrorCode(ptr noundef nonnull align 8 dereferenceable(112) %res, ptr noundef %fmt, ptr noundef %text, i32 noundef %textLength, ptr noundef %parsePos, ptr noundef %status)
          to label %invoke.cont unwind label %lpad

invoke.cont:                                      ; preds = %entry
  %call = invoke noundef double @_ZNK6icu_7511Formattable9getDoubleER10UErrorCode(ptr noundef nonnull align 8 dereferenceable(112) %res, ptr noundef nonnull align 4 dereferenceable(4) %status)
          to label %invoke.cont1 unwind label %lpad

invoke.cont1:                                     ; preds = %invoke.cont
  call void @_ZN6icu_7511FormattableD1Ev(ptr noundef nonnull align 8 dereferenceable(112) %res) #10
  ret double %call

lpad:                                             ; preds = %invoke.cont, %entry
  %0 = landingpad { ptr, i32 }
          cleanup
  call void @_ZN6icu_7511FormattableD1Ev(ptr noundef nonnull align 8 dereferenceable(112) %res) #10
  resume { ptr, i32 } %0
}